target datalayout = "e-m:e-p270:32:32-p271:32:32-p272:64:64-i64:64-i128:128-f80:128-n8:16:32:64-S128"
target triple = "x86_64-unknown-linux-gnu"

%"class.hermes::vm::CompressedPointer" = type { %"class.hermes::vm::BasedPointer" }
%"class.hermes::vm::BasedPointer" = type { i32 }
%"class.hermes::vm::HadesGC::OldGen" = type { ptr, %"class.std::deque", %"class.hermes::ExponentialMovingAverage", i64, i64, %"class.hermes::BitArray", %"class.std::deque.4", %"struct.std::array.10", %"struct.hermes::vm::HadesGC::OldGen::SweepIterator" }
%"class.std::deque" = type { %"class.std::_Deque_base" }
%"class.std::_Deque_base" = type { %"struct.std::_Deque_base<hermes::vm::HadesGC::HeapSegment, std::allocator<hermes::vm::HadesGC::HeapSegment>>::_Deque_impl" }
%"struct.std::_Deque_base<hermes::vm::HadesGC::HeapSegment, std::allocator<hermes::vm::HadesGC::HeapSegment>>::_Deque_impl" = type { %"struct.std::_Deque_base<hermes::vm::HadesGC::HeapSegment, std::allocator<hermes::vm::HadesGC::HeapSegment>>::_Deque_impl_data" }
%"struct.std::_Deque_base<hermes::vm::HadesGC::HeapSegment, std::allocator<hermes::vm::HadesGC::HeapSegment>>::_Deque_impl_data" = type { ptr, i64, %"struct.std::_Deque_iterator", %"struct.std::_Deque_iterator" }
%"struct.std::_Deque_iterator" = type { ptr, ptr, ptr, ptr }
%"class.hermes::ExponentialMovingAverage" = type { double, double }
%"class.hermes::BitArray" = type { %"struct.std::array" }
%"struct.std::array" = type { [5 x i64] }
%"class.std::deque.4" = type { %"class.std::_Deque_base.5" }
%"class.std::_Deque_base.5" = type { %"struct.std::_Deque_base<std::array<hermes::vm::HadesGC::OldGen::SegmentBucket, 267>, std::allocator<std::array<hermes::vm::HadesGC::OldGen::SegmentBucket, 267>>>::_Deque_impl" }
%"struct.std::_Deque_base<std::array<hermes::vm::HadesGC::OldGen::SegmentBucket, 267>, std::allocator<std::array<hermes::vm::HadesGC::OldGen::SegmentBucket, 267>>>::_Deque_impl" = type { %"struct.std::_Deque_base<std::array<hermes::vm::HadesGC::OldGen::SegmentBucket, 267>, std::allocator<std::array<hermes::vm::HadesGC::OldGen::SegmentBucket, 267>>>::_Deque_impl_data" }
%"struct.std::_Deque_base<std::array<hermes::vm::HadesGC::OldGen::SegmentBucket, 267>, std::allocator<std::array<hermes::vm::HadesGC::OldGen::SegmentBucket, 267>>>::_Deque_impl_data" = type { ptr, i64, %"struct.std::_Deque_iterator.9", %"struct.std::_Deque_iterator.9" }
%"struct.std::_Deque_iterator.9" = type { ptr, ptr, ptr, ptr }
%"struct.std::array.10" = type { [267 x %"struct.hermes::vm::HadesGC::OldGen::SegmentBucket"] }
%"struct.hermes::vm::HadesGC::OldGen::SegmentBucket" = type <{ ptr, ptr, %"class.hermes::vm::AssignableCompressedPointer", [4 x i8] }>
%"class.hermes::vm::AssignableCompressedPointer" = type { %"class.hermes::vm::CompressedPointer" }
%"struct.hermes::vm::HadesGC::OldGen::SweepIterator" = type { i64, i64, i64 }

; Function Attrs: mustprogress nounwind uwtable
define linkonce_odr hidden void @_ZN6hermes24ExponentialMovingAverageC2Edd(ptr noundef nonnull align 8 dereferenceable(16) %this, double noundef %weight, double noundef %init) unnamed_addr #0 comdat align 2 {
entry:
  %this.addr = alloca ptr, align 8
  %weight.addr = alloca double, align 8
  %init.addr = alloca double, align 8
  store ptr %this, ptr %this.addr, align 8
  store double %weight, ptr %weight.addr, align 8
  store double %init, ptr %init.addr, align 8
  %this1 = load ptr, ptr %this.addr, align 8
  %weight_ = getelementptr inbounds %"class.hermes::ExponentialMovingAverage", ptr %this1, i32 0, i32 0
  %0 = load double, ptr %weight.addr, align 8
  store double %0, ptr %weight_, align 8
  %avg_ = getelementptr inbounds %"class.hermes::ExponentialMovingAverage", ptr %this1, i32 0, i32 1
  %1 = load double, ptr %init.addr, align 8
  store double %1, ptr %avg_, align 8
  ret void
}

; Function Attrs: mustprogress nounwind uwtable
define hidden void @_ZN6hermes2vm7HadesGC6OldGen18setTargetSizeBytesEm(ptr noundef nonnull align 8 dereferenceable(6672) %this, i64 noundef %targetSizeBytes) #0 align 2 {
entry:
  %this.addr = alloca ptr, align 8
  %targetSizeBytes.addr = alloca i64, align 8
  %ref.tmp = alloca %"class.hermes::ExponentialMovingAverage", align 8
  store ptr %this, ptr %this.addr, align 8
  store i64 %targetSizeBytes, ptr %targetSizeBytes.addr, align 8
  %this1 = load ptr, ptr %this.addr, align 8
  %0 = load i64, ptr %targetSizeBytes.addr, align 8
  %conv = uitofp i64 %0 to double
  call void @_ZN6hermes24ExponentialMovingAverageC2Edd(ptr noundef nonnull align 8 dereferenceable(16) %ref.tmp, double noundef 5.000000e-01, double noundef %conv)
  %targetSizeBytes_ = getelementptr inbounds %"class.hermes::vm::HadesGC::OldGen", ptr %this1, i32 0, i32 2
  call void @llvm.memcpy.p0.p0.i64(ptr align 8 %targetSizeBytes_, ptr align 8 %ref.tmp, i64 16, i1 false)
  ret void
}