; Function Attrs: mustprogress nofree norecurse nosync nounwind willreturn memory(argmem: write) uwtable
define hidden void @_ZN6hermes2vm7HadesGC6OldGen18setTargetSizeBytesEm(ptr nocapture noundef nonnull writeonly align 8 dereferenceable(6672) %this, i64 noundef %targetSizeBytes) local_unnamed_addr #0 align 2 {
entry:
  %conv = uitofp i64 %targetSizeBytes to double
  %targetSizeBytes_ = getelementptr inbounds i8, ptr %this, i64 88
  store double 5.000000e-01, ptr %targetSizeBytes_, align 8
  %ref.tmp.sroa.2.0.targetSizeBytes_.sroa_idx = getelementptr inbounds i8, ptr %this, i64 96
  store double %conv, ptr %ref.tmp.sroa.2.0.targetSizeBytes_.sroa_idx, align 8
  ret void
}